#include <math.h>
#include <stdio.h>
#include <stdlib.h>
#include <string.h>


main()
{
      int w;
      scanf("%d",&w);
      if(w<=6)w=7-w;
      else w=7;
      if(13%7==w-1) printf("1\n");
      if(44%7==w-1) printf("2\n");
      if(72%7==w-1) printf("3\n");
      if(103%7==w-1) printf("4\n");
      if(133%7==w-1) printf("5\n");
      if(164%7==w-1) printf("6\n");
      if(194%7==w-1) printf("7\n");
      if(225%7==w-1) printf("8\n");
      if(256%7==w-1) printf("9\n");
      if(286%7==w-1) printf("10\n");
      if(317%7==w-1) printf("11\n");
      if(347%7==w-1) printf("12\n");

}
